target datalayout = "e-m:e-p270:32:32-p271:32:32-p272:64:64-i64:64-i128:128-f80:128-n8:16:32:64-S128"
target triple = "x86_64-pc-linux-gnu"

; Function Attrs: nounwind uwtable
define internal ptr @resample_child_class_iterate(ptr noundef %0) #1 {
  %2 = alloca ptr, align 8
  %3 = alloca ptr, align 8
  store ptr %0, ptr %2, align 8, !tbaa !82
  call void @llvm.lifetime.start.p0(i64 8, ptr %3) #10
  %4 = load ptr, ptr %2, align 8, !tbaa !82
  %5 = load ptr, ptr %4, align 8, !tbaa !43
  %6 = icmp ne ptr %5, null
  br i1 %6, label %7, label %8

7:                                                ; preds = %1
  br label %10

8:                                                ; preds = %1
  %9 = call ptr @swr_get_class()
  br label %10

10:                                               ; preds = %8, %7
  %11 = phi ptr [ null, %7 ], [ %9, %8 ]
  store ptr %11, ptr %3, align 8, !tbaa !83
  %12 = load ptr, ptr %3, align 8, !tbaa !83
  %13 = ptrtoint ptr %12 to i64
  %14 = inttoptr i64 %13 to ptr
  %15 = load ptr, ptr %2, align 8, !tbaa !82
  store ptr %14, ptr %15, align 8, !tbaa !43
  %16 = load ptr, ptr %3, align 8, !tbaa !83
  call void @llvm.lifetime.end.p0(i64 8, ptr %3) #10
  ret ptr %16
}