; Function Attrs: nounwind uwtable
define internal ptr @resample_child_class_iterate(ptr noundef captures(none) %0) #1 {
  %2 = load ptr, ptr %0, align 8, !tbaa !33
  %.not = icmp eq ptr %2, null
  br i1 %.not, label %3, label %5

3:                                                ; preds = %1
  %4 = tail call ptr @swr_get_class() #11
  br label %5

5:                                                ; preds = %1, %3
  %6 = phi ptr [ %4, %3 ], [ null, %1 ]
  store ptr %6, ptr %0, align 8, !tbaa !33
  ret ptr %6
}